target datalayout = "e-m:e-p270:32:32-p271:32:32-p272:64:64-i64:64-i128:128-f80:128-n8:16:32:64-S128"
target triple = "x86_64-pc-linux-gnu"

%struct.json_dumper = type { ptr, ptr, i32, i32, i32, i32, [1100 x i8] }
%struct._stats_tree_cfg = type { ptr, ptr, ptr, ptr, ptr, i32, i8, ptr, ptr, ptr, i32, ptr, ptr, ptr, ptr, i32 }
%struct._stats_tree = type { ptr, ptr, double, double, double, i32, i32, ptr, ptr, ptr, ptr, %struct._stat_node }
%struct._stat_node = type { ptr, i32, i32, i32, %union.anon.5, %union.anon.6, %union.anon.7, i32, i32, ptr, ptr, i32, double, ptr, ptr, ptr, ptr, ptr, ptr, ptr }
%union.anon.5 = type { i64 }
%union.anon.6 = type { i32 }
%union.anon.7 = type { i32 }

@dumper = internal global %struct.json_dumper zeroinitializer, align 8
@.str.20 = private unnamed_addr constant [4 x i8] c"tap\00", align 1
@.str.83 = private unnamed_addr constant [5 x i8] c"name\00", align 1
@.str.140 = private unnamed_addr constant [6 x i8] c"stats\00", align 1
@.str.243 = private unnamed_addr constant [9 x i8] c"stats:%s\00", align 1
@.str.244 = private unnamed_addr constant [5 x i8] c"type\00", align 1

; Function Attrs: null_pointer_is_valid sspstrong uwtable
define internal void @sharkd_json_value_string(ptr noundef %0, ptr noundef %1) #0 {
  %3 = alloca ptr, align 8
  %4 = alloca ptr, align 8
  store ptr %0, ptr %3, align 8
  store ptr %1, ptr %4, align 8
  %5 = load ptr, ptr %3, align 8
  %6 = icmp ne ptr %5, null
  br i1 %6, label %7, label %9

7:                                                ; preds = %2
  %8 = load ptr, ptr %3, align 8
  call void @json_dumper_set_member_name(ptr noundef @dumper, ptr noundef %8)
  br label %9

9:                                                ; preds = %7, %2
  %10 = load ptr, ptr %4, align 8
  call void @json_dumper_value_string(ptr noundef @dumper, ptr noundef %10)
  ret void
}

; Function Attrs: null_pointer_is_valid sspstrong uwtable
define internal void @sharkd_session_process_tap_stats_cb(ptr noundef %0) #0 {
  %2 = alloca ptr, align 8
  %3 = alloca ptr, align 8
  store ptr %0, ptr %2, align 8
  call void @llvm.lifetime.start.p0(i64 8, ptr %3) #21
  %4 = load ptr, ptr %2, align 8
  store ptr %4, ptr %3, align 8
  call void @json_dumper_begin_object(ptr noundef @dumper)
  %5 = load ptr, ptr %3, align 8
  %6 = getelementptr inbounds nuw %struct._stats_tree, ptr %5, i32 0, i32 0
  %7 = load ptr, ptr %6, align 8
  %8 = getelementptr inbounds nuw %struct._stats_tree_cfg, ptr %7, i32 0, i32 0
  %9 = load ptr, ptr %8, align 8
  call void (ptr, ptr, ...) @sharkd_json_value_stringf(ptr noundef @.str.20, ptr noundef @.str.243, ptr noundef %9)
  call void @sharkd_json_value_string(ptr noundef @.str.244, ptr noundef @.str.140)
  %10 = load ptr, ptr %3, align 8
  %11 = getelementptr inbounds nuw %struct._stats_tree, ptr %10, i32 0, i32 0
  %12 = load ptr, ptr %11, align 8
  %13 = getelementptr inbounds nuw %struct._stats_tree_cfg, ptr %12, i32 0, i32 1
  %14 = load ptr, ptr %13, align 8
  call void @sharkd_json_value_string(ptr noundef @.str.83, ptr noundef %14)
  %15 = load ptr, ptr %3, align 8
  %16 = getelementptr inbounds nuw %struct._stats_tree, ptr %15, i32 0, i32 11
  call void @sharkd_session_process_tap_stats_node_cb(ptr noundef @.str.140, ptr noundef %16)
  call void @json_dumper_end_object(ptr noundef @dumper)
  call void @llvm.lifetime.end.p0(i64 8, ptr %3) #21
  ret void
}