; Function Attrs: null_pointer_is_valid sspstrong uwtable
define internal void @sharkd_session_process_tap_stats_cb(ptr noundef readonly captures(none) %0) #0 {
  tail call void @json_dumper_begin_object(ptr noundef nonnull @dumper)
  %2 = load ptr, ptr %0, align 8
  %3 = load ptr, ptr %2, align 8
  tail call void (ptr, ptr, ...) @sharkd_json_value_stringf(ptr noundef nonnull @.str.20, ptr noundef nonnull @.str.243, ptr noundef %3)
  tail call void @json_dumper_set_member_name(ptr noundef nonnull @dumper, ptr noundef nonnull @.str.244)
  tail call void @json_dumper_value_string(ptr noundef nonnull @dumper, ptr noundef nonnull @.str.140)
  %4 = load ptr, ptr %0, align 8
  %5 = getelementptr inbounds nuw i8, ptr %4, i64 8
  %6 = load ptr, ptr %5, align 8
  tail call void @json_dumper_set_member_name(ptr noundef nonnull @dumper, ptr noundef nonnull @.str.83)
  tail call void @json_dumper_value_string(ptr noundef nonnull @dumper, ptr noundef %6)
  %7 = getelementptr inbounds nuw i8, ptr %0, i64 80
  tail call fastcc void @sharkd_session_process_tap_stats_node_cb(ptr noundef nonnull @.str.140, ptr noundef nonnull %7)
  tail call void @json_dumper_end_object(ptr noundef nonnull @dumper)
  ret void
}